target datalayout = "e-m:e-p270:32:32-p271:32:32-p272:64:64-i64:64-i128:128-f80:128-n8:16:32:64-S128"
target triple = "x86_64-pc-linux-gnu"

; Function Attrs: nounwind uwtable
define internal void @TransformWHT_C(ptr noalias noundef %0, ptr noalias noundef %1) #0 {
  %3 = alloca ptr, align 8
  %4 = alloca ptr, align 8
  %5 = alloca [16 x i32], align 16
  %6 = alloca i32, align 4
  %7 = alloca i32, align 4
  %8 = alloca i32, align 4
  %9 = alloca i32, align 4
  %10 = alloca i32, align 4
  %11 = alloca i32, align 4
  %12 = alloca i32, align 4
  %13 = alloca i32, align 4
  %14 = alloca i32, align 4
  %15 = alloca i32, align 4
  store ptr %0, ptr %3, align 8, !tbaa !7
  store ptr %1, ptr %4, align 8, !tbaa !7
  call void @llvm.lifetime.start.p0(i64 64, ptr %5) #7
  call void @llvm.lifetime.start.p0(i64 4, ptr %6) #7
  store i32 0, ptr %6, align 4, !tbaa !9
  br label %16

16:                                               ; preds = %108, %2
  %17 = load i32, ptr %6, align 4, !tbaa !9
  %18 = icmp slt i32 %17, 4
  br i1 %18, label %19, label %111

19:                                               ; preds = %16
  call void @llvm.lifetime.start.p0(i64 4, ptr %7) #7
  %20 = load ptr, ptr %3, align 8, !tbaa !7
  %21 = load i32, ptr %6, align 4, !tbaa !9
  %22 = add nsw i32 0, %21
  %23 = sext i32 %22 to i64
  %24 = getelementptr inbounds i16, ptr %20, i64 %23
  %25 = load i16, ptr %24, align 2, !tbaa !11
  %26 = sext i16 %25 to i32
  %27 = load ptr, ptr %3, align 8, !tbaa !7
  %28 = load i32, ptr %6, align 4, !tbaa !9
  %29 = add nsw i32 12, %28
  %30 = sext i32 %29 to i64
  %31 = getelementptr inbounds i16, ptr %27, i64 %30
  %32 = load i16, ptr %31, align 2, !tbaa !11
  %33 = sext i16 %32 to i32
  %34 = add nsw i32 %26, %33
  store i32 %34, ptr %7, align 4, !tbaa !9
  call void @llvm.lifetime.start.p0(i64 4, ptr %8) #7
  %35 = load ptr, ptr %3, align 8, !tbaa !7
  %36 = load i32, ptr %6, align 4, !tbaa !9
  %37 = add nsw i32 4, %36
  %38 = sext i32 %37 to i64
  %39 = getelementptr inbounds i16, ptr %35, i64 %38
  %40 = load i16, ptr %39, align 2, !tbaa !11
  %41 = sext i16 %40 to i32
  %42 = load ptr, ptr %3, align 8, !tbaa !7
  %43 = load i32, ptr %6, align 4, !tbaa !9
  %44 = add nsw i32 8, %43
  %45 = sext i32 %44 to i64
  %46 = getelementptr inbounds i16, ptr %42, i64 %45
  %47 = load i16, ptr %46, align 2, !tbaa !11
  %48 = sext i16 %47 to i32
  %49 = add nsw i32 %41, %48
  store i32 %49, ptr %8, align 4, !tbaa !9
  call void @llvm.lifetime.start.p0(i64 4, ptr %9) #7
  %50 = load ptr, ptr %3, align 8, !tbaa !7
  %51 = load i32, ptr %6, align 4, !tbaa !9
  %52 = add nsw i32 4, %51
  %53 = sext i32 %52 to i64
  %54 = getelementptr inbounds i16, ptr %50, i64 %53
  %55 = load i16, ptr %54, align 2, !tbaa !11
  %56 = sext i16 %55 to i32
  %57 = load ptr, ptr %3, align 8, !tbaa !7
  %58 = load i32, ptr %6, align 4, !tbaa !9
  %59 = add nsw i32 8, %58
  %60 = sext i32 %59 to i64
  %61 = getelementptr inbounds i16, ptr %57, i64 %60
  %62 = load i16, ptr %61, align 2, !tbaa !11
  %63 = sext i16 %62 to i32
  %64 = sub nsw i32 %56, %63
  store i32 %64, ptr %9, align 4, !tbaa !9
  call void @llvm.lifetime.start.p0(i64 4, ptr %10) #7
  %65 = load ptr, ptr %3, align 8, !tbaa !7
  %66 = load i32, ptr %6, align 4, !tbaa !9
  %67 = add nsw i32 0, %66
  %68 = sext i32 %67 to i64
  %69 = getelementptr inbounds i16, ptr %65, i64 %68
  %70 = load i16, ptr %69, align 2, !tbaa !11
  %71 = sext i16 %70 to i32
  %72 = load ptr, ptr %3, align 8, !tbaa !7
  %73 = load i32, ptr %6, align 4, !tbaa !9
  %74 = add nsw i32 12, %73
  %75 = sext i32 %74 to i64
  %76 = getelementptr inbounds i16, ptr %72, i64 %75
  %77 = load i16, ptr %76, align 2, !tbaa !11
  %78 = sext i16 %77 to i32
  %79 = sub nsw i32 %71, %78
  store i32 %79, ptr %10, align 4, !tbaa !9
  %80 = load i32, ptr %7, align 4, !tbaa !9
  %81 = load i32, ptr %8, align 4, !tbaa !9
  %82 = add nsw i32 %80, %81
  %83 = load i32, ptr %6, align 4, !tbaa !9
  %84 = add nsw i32 0, %83
  %85 = sext i32 %84 to i64
  %86 = getelementptr inbounds [16 x i32], ptr %5, i64 0, i64 %85
  store i32 %82, ptr %86, align 4, !tbaa !9
  %87 = load i32, ptr %7, align 4, !tbaa !9
  %88 = load i32, ptr %8, align 4, !tbaa !9
  %89 = sub nsw i32 %87, %88
  %90 = load i32, ptr %6, align 4, !tbaa !9
  %91 = add nsw i32 8, %90
  %92 = sext i32 %91 to i64
  %93 = getelementptr inbounds [16 x i32], ptr %5, i64 0, i64 %92
  store i32 %89, ptr %93, align 4, !tbaa !9
  %94 = load i32, ptr %10, align 4, !tbaa !9
  %95 = load i32, ptr %9, align 4, !tbaa !9
  %96 = add nsw i32 %94, %95
  %97 = load i32, ptr %6, align 4, !tbaa !9
  %98 = add nsw i32 4, %97
  %99 = sext i32 %98 to i64
  %100 = getelementptr inbounds [16 x i32], ptr %5, i64 0, i64 %99
  store i32 %96, ptr %100, align 4, !tbaa !9
  %101 = load i32, ptr %10, align 4, !tbaa !9
  %102 = load i32, ptr %9, align 4, !tbaa !9
  %103 = sub nsw i32 %101, %102
  %104 = load i32, ptr %6, align 4, !tbaa !9
  %105 = add nsw i32 12, %104
  %106 = sext i32 %105 to i64
  %107 = getelementptr inbounds [16 x i32], ptr %5, i64 0, i64 %106
  store i32 %103, ptr %107, align 4, !tbaa !9
  call void @llvm.lifetime.end.p0(i64 4, ptr %10) #7
  call void @llvm.lifetime.end.p0(i64 4, ptr %9) #7
  call void @llvm.lifetime.end.p0(i64 4, ptr %8) #7
  call void @llvm.lifetime.end.p0(i64 4, ptr %7) #7
  br label %108

108:                                              ; preds = %19
  %109 = load i32, ptr %6, align 4, !tbaa !9
  %110 = add nsw i32 %109, 1
  store i32 %110, ptr %6, align 4, !tbaa !9
  br label %16, !llvm.loop !13

111:                                              ; preds = %16
  store i32 0, ptr %6, align 4, !tbaa !9
  br label %112

112:                                              ; preds = %195, %111
  %113 = load i32, ptr %6, align 4, !tbaa !9
  %114 = icmp slt i32 %113, 4
  br i1 %114, label %115, label %198

115:                                              ; preds = %112
  call void @llvm.lifetime.start.p0(i64 4, ptr %11) #7
  %116 = load i32, ptr %6, align 4, !tbaa !9
  %117 = mul nsw i32 %116, 4
  %118 = add nsw i32 0, %117
  %119 = sext i32 %118 to i64
  %120 = getelementptr inbounds [16 x i32], ptr %5, i64 0, i64 %119
  %121 = load i32, ptr %120, align 4, !tbaa !9
  %122 = add nsw i32 %121, 3
  store i32 %122, ptr %11, align 4, !tbaa !9
  call void @llvm.lifetime.start.p0(i64 4, ptr %12) #7
  %123 = load i32, ptr %11, align 4, !tbaa !9
  %124 = load i32, ptr %6, align 4, !tbaa !9
  %125 = mul nsw i32 %124, 4
  %126 = add nsw i32 3, %125
  %127 = sext i32 %126 to i64
  %128 = getelementptr inbounds [16 x i32], ptr %5, i64 0, i64 %127
  %129 = load i32, ptr %128, align 4, !tbaa !9
  %130 = add nsw i32 %123, %129
  store i32 %130, ptr %12, align 4, !tbaa !9
  call void @llvm.lifetime.start.p0(i64 4, ptr %13) #7
  %131 = load i32, ptr %6, align 4, !tbaa !9
  %132 = mul nsw i32 %131, 4
  %133 = add nsw i32 1, %132
  %134 = sext i32 %133 to i64
  %135 = getelementptr inbounds [16 x i32], ptr %5, i64 0, i64 %134
  %136 = load i32, ptr %135, align 4, !tbaa !9
  %137 = load i32, ptr %6, align 4, !tbaa !9
  %138 = mul nsw i32 %137, 4
  %139 = add nsw i32 2, %138
  %140 = sext i32 %139 to i64
  %141 = getelementptr inbounds [16 x i32], ptr %5, i64 0, i64 %140
  %142 = load i32, ptr %141, align 4, !tbaa !9
  %143 = add nsw i32 %136, %142
  store i32 %143, ptr %13, align 4, !tbaa !9
  call void @llvm.lifetime.start.p0(i64 4, ptr %14) #7
  %144 = load i32, ptr %6, align 4, !tbaa !9
  %145 = mul nsw i32 %144, 4
  %146 = add nsw i32 1, %145
  %147 = sext i32 %146 to i64
  %148 = getelementptr inbounds [16 x i32], ptr %5, i64 0, i64 %147
  %149 = load i32, ptr %148, align 4, !tbaa !9
  %150 = load i32, ptr %6, align 4, !tbaa !9
  %151 = mul nsw i32 %150, 4
  %152 = add nsw i32 2, %151
  %153 = sext i32 %152 to i64
  %154 = getelementptr inbounds [16 x i32], ptr %5, i64 0, i64 %153
  %155 = load i32, ptr %154, align 4, !tbaa !9
  %156 = sub nsw i32 %149, %155
  store i32 %156, ptr %14, align 4, !tbaa !9
  call void @llvm.lifetime.start.p0(i64 4, ptr %15) #7
  %157 = load i32, ptr %11, align 4, !tbaa !9
  %158 = load i32, ptr %6, align 4, !tbaa !9
  %159 = mul nsw i32 %158, 4
  %160 = add nsw i32 3, %159
  %161 = sext i32 %160 to i64
  %162 = getelementptr inbounds [16 x i32], ptr %5, i64 0, i64 %161
  %163 = load i32, ptr %162, align 4, !tbaa !9
  %164 = sub nsw i32 %157, %163
  store i32 %164, ptr %15, align 4, !tbaa !9
  %165 = load i32, ptr %12, align 4, !tbaa !9
  %166 = load i32, ptr %13, align 4, !tbaa !9
  %167 = add nsw i32 %165, %166
  %168 = ashr i32 %167, 3
  %169 = trunc i32 %168 to i16
  %170 = load ptr, ptr %4, align 8, !tbaa !7
  %171 = getelementptr inbounds i16, ptr %170, i64 0
  store i16 %169, ptr %171, align 2, !tbaa !11
  %172 = load i32, ptr %15, align 4, !tbaa !9
  %173 = load i32, ptr %14, align 4, !tbaa !9
  %174 = add nsw i32 %172, %173
  %175 = ashr i32 %174, 3
  %176 = trunc i32 %175 to i16
  %177 = load ptr, ptr %4, align 8, !tbaa !7
  %178 = getelementptr inbounds i16, ptr %177, i64 16
  store i16 %176, ptr %178, align 2, !tbaa !11
  %179 = load i32, ptr %12, align 4, !tbaa !9
  %180 = load i32, ptr %13, align 4, !tbaa !9
  %181 = sub nsw i32 %179, %180
  %182 = ashr i32 %181, 3
  %183 = trunc i32 %182 to i16
  %184 = load ptr, ptr %4, align 8, !tbaa !7
  %185 = getelementptr inbounds i16, ptr %184, i64 32
  store i16 %183, ptr %185, align 2, !tbaa !11
  %186 = load i32, ptr %15, align 4, !tbaa !9
  %187 = load i32, ptr %14, align 4, !tbaa !9
  %188 = sub nsw i32 %186, %187
  %189 = ashr i32 %188, 3
  %190 = trunc i32 %189 to i16
  %191 = load ptr, ptr %4, align 8, !tbaa !7
  %192 = getelementptr inbounds i16, ptr %191, i64 48
  store i16 %190, ptr %192, align 2, !tbaa !11
  %193 = load ptr, ptr %4, align 8, !tbaa !7
  %194 = getelementptr inbounds i16, ptr %193, i64 64
  store ptr %194, ptr %4, align 8, !tbaa !7
  call void @llvm.lifetime.end.p0(i64 4, ptr %15) #7
  call void @llvm.lifetime.end.p0(i64 4, ptr %14) #7
  call void @llvm.lifetime.end.p0(i64 4, ptr %13) #7
  call void @llvm.lifetime.end.p0(i64 4, ptr %12) #7
  call void @llvm.lifetime.end.p0(i64 4, ptr %11) #7
  br label %195

195:                                              ; preds = %115
  %196 = load i32, ptr %6, align 4, !tbaa !9
  %197 = add nsw i32 %196, 1
  store i32 %197, ptr %6, align 4, !tbaa !9
  br label %112, !llvm.loop !15

198:                                              ; preds = %112
  call void @llvm.lifetime.end.p0(i64 4, ptr %6) #7
  call void @llvm.lifetime.end.p0(i64 64, ptr %5) #7
  ret void
}