; Function Attrs: nofree norecurse nosync nounwind memory(argmem: readwrite) uwtable
define internal void @TransformWHT_C(ptr noalias noundef readonly captures(none) %0, ptr noalias noundef writeonly captures(none) %1) #3 {
  %3 = alloca [16 x i32], align 16
  call void @llvm.lifetime.start.p0(i64 64, ptr nonnull %3) #12
  br label %4

4:                                                ; preds = %2, %4
  %indvars.iv = phi i64 [ 0, %2 ], [ %indvars.iv.next, %4 ]
  %5 = getelementptr inbounds nuw i16, ptr %0, i64 %indvars.iv
  %6 = load i16, ptr %5, align 2, !tbaa !7
  %7 = sext i16 %6 to i32
  %8 = or disjoint i64 %indvars.iv, 12
  %9 = getelementptr inbounds nuw i16, ptr %0, i64 %8
  %10 = load i16, ptr %9, align 2, !tbaa !7
  %11 = sext i16 %10 to i32
  %12 = add nsw i32 %11, %7
  %13 = or disjoint i64 %indvars.iv, 4
  %14 = getelementptr inbounds nuw i16, ptr %0, i64 %13
  %15 = load i16, ptr %14, align 2, !tbaa !7
  %16 = sext i16 %15 to i32
  %17 = or disjoint i64 %indvars.iv, 8
  %18 = getelementptr inbounds nuw i16, ptr %0, i64 %17
  %19 = load i16, ptr %18, align 2, !tbaa !7
  %20 = sext i16 %19 to i32
  %21 = add nsw i32 %20, %16
  %22 = sub nsw i32 %16, %20
  %23 = sub nsw i32 %7, %11
  %24 = add nsw i32 %21, %12
  %25 = getelementptr inbounds nuw [16 x i32], ptr %3, i64 0, i64 %indvars.iv
  store i32 %24, ptr %25, align 4, !tbaa !9
  %26 = sub nsw i32 %12, %21
  %27 = getelementptr inbounds nuw [16 x i32], ptr %3, i64 0, i64 %17
  store i32 %26, ptr %27, align 4, !tbaa !9
  %28 = add nsw i32 %22, %23
  %29 = getelementptr inbounds nuw [16 x i32], ptr %3, i64 0, i64 %13
  store i32 %28, ptr %29, align 4, !tbaa !9
  %30 = sub nsw i32 %23, %22
  %31 = getelementptr inbounds nuw [16 x i32], ptr %3, i64 0, i64 %8
  store i32 %30, ptr %31, align 4, !tbaa !9
  %indvars.iv.next = add nuw nsw i64 %indvars.iv, 1
  %exitcond.not = icmp eq i64 %indvars.iv.next, 4
  br i1 %exitcond.not, label %.preheader, label %4, !llvm.loop !11

.preheader:                                       ; preds = %4, %.preheader
  %indvars.iv58 = phi i64 [ %indvars.iv.next59, %.preheader ], [ 0, %4 ]
  %.056 = phi ptr [ %64, %.preheader ], [ %1, %4 ]
  %32 = shl nuw nsw i64 %indvars.iv58, 2
  %33 = getelementptr inbounds nuw [16 x i32], ptr %3, i64 0, i64 %32
  %34 = load i32, ptr %33, align 16, !tbaa !9
  %35 = add nsw i32 %34, 3
  %36 = or disjoint i64 %32, 3
  %37 = getelementptr inbounds nuw [16 x i32], ptr %3, i64 0, i64 %36
  %38 = load i32, ptr %37, align 4, !tbaa !9
  %39 = add nsw i32 %35, %38
  %40 = or disjoint i64 %32, 1
  %41 = getelementptr inbounds nuw [16 x i32], ptr %3, i64 0, i64 %40
  %42 = load i32, ptr %41, align 4, !tbaa !9
  %43 = or disjoint i64 %32, 2
  %44 = getelementptr inbounds nuw [16 x i32], ptr %3, i64 0, i64 %43
  %45 = load i32, ptr %44, align 8, !tbaa !9
  %46 = add nsw i32 %45, %42
  %47 = sub nsw i32 %42, %45
  %48 = sub nsw i32 %35, %38
  %49 = add nsw i32 %46, %39
  %50 = lshr i32 %49, 3
  %51 = trunc i32 %50 to i16
  store i16 %51, ptr %.056, align 2, !tbaa !7
  %52 = add nsw i32 %47, %48
  %53 = lshr i32 %52, 3
  %54 = trunc i32 %53 to i16
  %55 = getelementptr inbounds nuw i8, ptr %.056, i64 32
  store i16 %54, ptr %55, align 2, !tbaa !7
  %56 = sub nsw i32 %39, %46
  %57 = lshr i32 %56, 3
  %58 = trunc i32 %57 to i16
  %59 = getelementptr inbounds nuw i8, ptr %.056, i64 64
  store i16 %58, ptr %59, align 2, !tbaa !7
  %60 = sub nsw i32 %48, %47
  %61 = lshr i32 %60, 3
  %62 = trunc i32 %61 to i16
  %63 = getelementptr inbounds nuw i8, ptr %.056, i64 96
  store i16 %62, ptr %63, align 2, !tbaa !7
  %64 = getelementptr inbounds nuw i8, ptr %.056, i64 128
  %indvars.iv.next59 = add nuw nsw i64 %indvars.iv58, 1
  %exitcond61.not = icmp eq i64 %indvars.iv.next59, 4
  br i1 %exitcond61.not, label %65, label %.preheader, !llvm.loop !13

65:                                               ; preds = %.preheader
  call void @llvm.lifetime.end.p0(i64 64, ptr nonnull %3) #12
  ret void
}